; Function Attrs: mustprogress nofree norecurse nosync nounwind willreturn memory(read, inaccessiblemem: none) uwtable
define dso_local noundef nonnull align 8 dereferenceable(32) ptr @_ZNK25cmInstallCommandArguments14GetPermissionsB5cxx11Ev(ptr noundef nonnull readonly align 8 dereferenceable(440) %0) local_unnamed_addr #6 align 2 {
  br label %tailrecurse

tailrecurse:                                      ; preds = %5, %1
  %.tr = phi ptr [ %0, %1 ], [ %7, %5 ]
  %2 = getelementptr inbounds nuw i8, ptr %.tr, i64 376
  %3 = load i64, ptr %2, align 8, !tbaa !10
  %4 = icmp eq i64 %3, 0
  br i1 %4, label %5, label %.split.loop.exit3

5:                                                ; preds = %tailrecurse
  %6 = getelementptr inbounds nuw i8, ptr %.tr, i64 400
  %7 = load ptr, ptr %6, align 8, !tbaa !41
  %.not = icmp eq ptr %7, null
  br i1 %.not, label %.split.loop.exit, label %tailrecurse

.split.loop.exit3:                                ; preds = %tailrecurse
  %8 = getelementptr inbounds nuw i8, ptr %.tr, i64 368
  br label %.split.loop.exit

.split.loop.exit:                                 ; preds = %5, %.split.loop.exit3
  %.0 = phi ptr [ %8, %.split.loop.exit3 ], [ @_ZN25cmInstallCommandArguments11EmptyStringB5cxx11E, %5 ]
  ret ptr %.0
}